; Function Attrs: mustprogress nofree nounwind memory(read, argmem: readwrite, inaccessiblemem: none) uwtable
define noundef zeroext i1 @_ZN11OpenImageIO6v3_1_07Strutil12parse_prefixERNS0_17basic_string_viewIcSt11char_traitsIcEEES5_b(ptr noundef nonnull align 8 captures(none) dereferenceable(16) %0, ptr noundef readonly captures(none) %1, i1 noundef zeroext %2) local_unnamed_addr #26 personality ptr @__gxx_personality_v0 {
  %4 = load ptr, ptr %0, align 8, !tbaa !67
  %5 = getelementptr inbounds nuw i8, ptr %0, i64 8
  %6 = load i64, ptr %5, align 8, !tbaa !64
  %.not4.i = icmp eq i64 %6, 0
  br i1 %.not4.i, label %_ZN11OpenImageIO6v3_1_07Strutil15skip_whitespaceERNS0_17basic_string_viewIcSt11char_traitsIcEEE.exit, label %.lr.ph.i.preheader

.lr.ph.i.preheader:                               ; preds = %3
  %scevgep = getelementptr i8, ptr %4, i64 %6
  br label %.lr.ph.i

.lr.ph.i:                                         ; preds = %.lr.ph.i.preheader, %8
  %.sroa.05.0 = phi ptr [ %9, %8 ], [ %4, %.lr.ph.i.preheader ]
  %.sroa.9.0 = phi i64 [ %10, %8 ], [ %6, %.lr.ph.i.preheader ]
  %7 = load i8, ptr %.sroa.05.0, align 1, !tbaa !3
  switch i8 %7, label %_ZN11OpenImageIO6v3_1_07Strutil15skip_whitespaceERNS0_17basic_string_viewIcSt11char_traitsIcEEE.exit [
    i8 32, label %8
    i8 10, label %8
    i8 9, label %8
    i8 13, label %8
  ]

8:                                                ; preds = %.lr.ph.i, %.lr.ph.i, %.lr.ph.i, %.lr.ph.i
  %9 = getelementptr inbounds nuw i8, ptr %.sroa.05.0, i64 1
  %10 = add i64 %.sroa.9.0, -1
  %.not.i = icmp eq i64 %10, 0
  br i1 %.not.i, label %_ZN11OpenImageIO6v3_1_07Strutil15skip_whitespaceERNS0_17basic_string_viewIcSt11char_traitsIcEEE.exit, label %.lr.ph.i, !llvm.loop !79

_ZN11OpenImageIO6v3_1_07Strutil15skip_whitespaceERNS0_17basic_string_viewIcSt11char_traitsIcEEE.exit: ; preds = %.lr.ph.i, %8, %3
  %.sroa.05.1 = phi ptr [ %4, %3 ], [ %scevgep, %8 ], [ %.sroa.05.0, %.lr.ph.i ]
  %.sroa.9.1 = phi i64 [ 0, %3 ], [ 0, %8 ], [ %.sroa.9.0, %.lr.ph.i ]
  %11 = getelementptr inbounds nuw i8, ptr %1, i64 8
  %12 = load i64, ptr %11, align 8, !tbaa !64
  %13 = icmp ult i64 %.sroa.9.1, %12
  br i1 %13, label %_ZN11OpenImageIO6v3_1_07Strutil11starts_withENS0_17basic_string_viewIcSt11char_traitsIcEEES5_.exit.thread, label %_ZN11OpenImageIO6v3_1_07Strutil11starts_withENS0_17basic_string_viewIcSt11char_traitsIcEEES5_.exit

_ZN11OpenImageIO6v3_1_07Strutil11starts_withENS0_17basic_string_viewIcSt11char_traitsIcEEES5_.exit: ; preds = %_ZN11OpenImageIO6v3_1_07Strutil15skip_whitespaceERNS0_17basic_string_viewIcSt11char_traitsIcEEE.exit
  %14 = load ptr, ptr %1, align 8, !tbaa !67
  %15 = tail call i32 @strncmp(ptr noundef %.sroa.05.1, ptr noundef %14, i64 noundef %12) #49
  %16 = icmp eq i32 %15, 0
  %brmerge.not = and i1 %16, %2
  br i1 %brmerge.not, label %17, label %_ZN11OpenImageIO6v3_1_07Strutil11starts_withENS0_17basic_string_viewIcSt11char_traitsIcEEES5_.exit.thread

17:                                               ; preds = %_ZN11OpenImageIO6v3_1_07Strutil11starts_withENS0_17basic_string_viewIcSt11char_traitsIcEEES5_.exit
  %18 = sub i64 %.sroa.9.1, %12
  %19 = getelementptr inbounds nuw i8, ptr %.sroa.05.1, i64 %12
  store ptr %19, ptr %0, align 8, !tbaa !13
  store i64 %18, ptr %5, align 8, !tbaa !86
  br label %_ZN11OpenImageIO6v3_1_07Strutil11starts_withENS0_17basic_string_viewIcSt11char_traitsIcEEES5_.exit.thread

_ZN11OpenImageIO6v3_1_07Strutil11starts_withENS0_17basic_string_viewIcSt11char_traitsIcEEES5_.exit.thread: ; preds = %_ZN11OpenImageIO6v3_1_07Strutil11starts_withENS0_17basic_string_viewIcSt11char_traitsIcEEES5_.exit, %_ZN11OpenImageIO6v3_1_07Strutil15skip_whitespaceERNS0_17basic_string_viewIcSt11char_traitsIcEEE.exit, %17
  %.0.i10 = phi i1 [ %16, %_ZN11OpenImageIO6v3_1_07Strutil11starts_withENS0_17basic_string_viewIcSt11char_traitsIcEEES5_.exit ], [ true, %17 ], [ false, %_ZN11OpenImageIO6v3_1_07Strutil15skip_whitespaceERNS0_17basic_string_viewIcSt11char_traitsIcEEE.exit ]
  ret i1 %.0.i10
}